target datalayout = "e-m:e-p270:32:32-p271:32:32-p272:64:64-i64:64-i128:128-f80:128-n8:16:32:64-S128"
target triple = "x86_64-pc-linux-gnu"

%struct.QArrayData = type { %"class.QtPrivate::RefCount", i32, i32, i64 }
%"class.QtPrivate::RefCount" = type { %class.QBasicAtomicInteger }
%class.QBasicAtomicInteger = type { %"struct.std::atomic.28" }
%"struct.std::atomic.28" = type { %"struct.std::__atomic_base.29" }
%"struct.std::__atomic_base.29" = type { i32 }
%class.MeshDocument = type { %class.QObject, %class.GLLogStream, %class.FilterScript, %"class.std::__cxx11::list", %"class.std::__cxx11::list.22", i32, i32, %class.QString, %class.QString, %class.MeshDocumentStateData, i8, ptr, ptr }
%class.QObject = type { ptr, %class.QScopedPointer }
%class.QScopedPointer = type { ptr }
%class.GLLogStream = type { %class.QObject, i32, %class.QList, %class.QMultiMap }
%class.QList = type { %union.anon }
%union.anon = type { %struct.QListData }
%struct.QListData = type { ptr }
%class.QMultiMap = type { %class.QMap }
%class.QMap = type { ptr }
%class.FilterScript = type { %class.QObject, %class.QList.16 }
%class.QList.16 = type { %union.anon.18 }
%union.anon.18 = type { %struct.QListData }
%"class.std::__cxx11::list" = type { %"class.std::__cxx11::_List_base" }
%"class.std::__cxx11::_List_base" = type { %"struct.std::__cxx11::_List_base<MeshModel, std::allocator<MeshModel>>::_List_impl" }
%"struct.std::__cxx11::_List_base<MeshModel, std::allocator<MeshModel>>::_List_impl" = type { %"struct.std::__detail::_List_node_header" }
%"struct.std::__detail::_List_node_header" = type { %"struct.std::__detail::_List_node_base", i64 }
%"struct.std::__detail::_List_node_base" = type { ptr, ptr }
%"class.std::__cxx11::list.22" = type { %"class.std::__cxx11::_List_base.23" }
%"class.std::__cxx11::_List_base.23" = type { %"struct.std::__cxx11::_List_base<RasterModel, std::allocator<RasterModel>>::_List_impl" }
%"struct.std::__cxx11::_List_base<RasterModel, std::allocator<RasterModel>>::_List_impl" = type { %"struct.std::__detail::_List_node_header" }
%class.QString = type { ptr }
%class.MeshDocumentStateData = type { %class.QReadWriteLock, %class.QMap.27 }
%class.QReadWriteLock = type { %class.QAtomicPointer }
%class.QAtomicPointer = type { %class.QBasicAtomicPointer }
%class.QBasicAtomicPointer = type { %"struct.std::atomic" }
%"struct.std::atomic" = type { %"struct.std::__atomic_base" }
%"struct.std::__atomic_base" = type { ptr }
%class.QMap.27 = type { ptr }

; Function Attrs: mustprogress nounwind uwtable
define linkonce_odr noundef i32 @_ZNSt13__atomic_baseIiEppEv(ptr noundef nonnull align 4 dereferenceable(4) %0) #4 comdat align 2 {
  %2 = alloca ptr, align 8
  %3 = alloca i32, align 4
  %4 = alloca i32, align 4
  store ptr %0, ptr %2, align 8
  %5 = load ptr, ptr %2, align 8
  %6 = getelementptr inbounds %"struct.std::__atomic_base.29", ptr %5, i32 0, i32 0
  store i32 1, ptr %3, align 4
  %7 = load i32, ptr %3, align 4
  %8 = atomicrmw add ptr %6, i32 %7 seq_cst, align 4
  %9 = add i32 %8, %7
  store i32 %9, ptr %4, align 4
  %10 = load i32, ptr %4, align 4
  ret i32 %10
}

; Function Attrs: mustprogress nounwind uwtable
define linkonce_odr noundef i32 @_ZStanSt12memory_orderSt23__memory_order_modifier(i32 noundef %0, i32 noundef %1) #4 comdat {
  %3 = alloca i32, align 4
  %4 = alloca i32, align 4
  store i32 %0, ptr %3, align 4
  store i32 %1, ptr %4, align 4
  %5 = load i32, ptr %3, align 4
  %6 = load i32, ptr %4, align 4
  %7 = and i32 %5, %6
  ret i32 %7
}

; Function Attrs: noreturn nounwind uwtable
define linkonce_odr hidden void @__clang_call_terminate(ptr noundef %0) #9 comdat {
  %2 = call ptr @__cxa_begin_catch(ptr %0) #3
  call void @_ZSt9terminatev() #15
  unreachable
}

; Function Attrs: mustprogress nounwind uwtable
define linkonce_odr noundef zeroext i1 @_ZN10QAtomicOpsIiE3refIiEEbRSt6atomicIT_E(ptr noundef nonnull align 4 dereferenceable(4) %0) #4 comdat align 2 {
  %2 = alloca ptr, align 8
  store ptr %0, ptr %2, align 8
  %3 = load ptr, ptr %2, align 8
  %4 = call noundef i32 @_ZNSt13__atomic_baseIiEppEv(ptr noundef nonnull align 4 dereferenceable(4) %3) #3
  %5 = icmp ne i32 %4, 0
  ret i1 %5
}

; Function Attrs: mustprogress nounwind uwtable
define linkonce_odr noundef i32 @_ZN10QAtomicOpsIiE11loadRelaxedIiEET_RKSt6atomicIS2_E(ptr noundef nonnull align 4 dereferenceable(4) %0) #4 comdat align 2 personality ptr @__gxx_personality_v0 {
  %2 = alloca ptr, align 8
  %3 = alloca i32, align 4
  %4 = alloca i32, align 4
  %5 = alloca i32, align 4
  %6 = alloca ptr, align 8
  store ptr %0, ptr %6, align 8
  %7 = load ptr, ptr %6, align 8
  store ptr %7, ptr %2, align 8
  store i32 0, ptr %3, align 4
  %8 = load ptr, ptr %2, align 8
  %9 = load i32, ptr %3, align 4
  %10 = invoke noundef i32 @_ZStanSt12memory_orderSt23__memory_order_modifier(i32 noundef %9, i32 noundef 65535)
          to label %11 unwind label %19

11:                                               ; preds = %1
  store i32 %10, ptr %4, align 4
  %12 = load i32, ptr %3, align 4
  switch i32 %12, label %13 [
    i32 1, label %15
    i32 2, label %15
    i32 5, label %17
  ]

13:                                               ; preds = %11
  %14 = load atomic i32, ptr %8 monotonic, align 4
  store i32 %14, ptr %5, align 4
  br label %22

15:                                               ; preds = %11, %11
  %16 = load atomic i32, ptr %8 acquire, align 4
  store i32 %16, ptr %5, align 4
  br label %22

17:                                               ; preds = %11
  %18 = load atomic i32, ptr %8 seq_cst, align 4
  store i32 %18, ptr %5, align 4
  br label %22

19:                                               ; preds = %1
  %20 = landingpad { ptr, i32 }
          catch ptr null
  %21 = extractvalue { ptr, i32 } %20, 0
  call void @__clang_call_terminate(ptr %21) #15
  unreachable

22:                                               ; preds = %17, %15, %13
  %23 = load i32, ptr %5, align 4
  ret i32 %23
}

; Function Attrs: mustprogress nounwind uwtable
define linkonce_odr noundef zeroext i1 @_ZN19QBasicAtomicIntegerIiE3refEv(ptr noundef nonnull align 4 dereferenceable(4) %0) #4 comdat align 2 personality ptr @__gxx_personality_v0 {
  %2 = alloca ptr, align 8
  store ptr %0, ptr %2, align 8
  %3 = load ptr, ptr %2, align 8
  %4 = getelementptr inbounds %class.QBasicAtomicInteger, ptr %3, i32 0, i32 0
  %5 = invoke noundef zeroext i1 @_ZN10QAtomicOpsIiE3refIiEEbRSt6atomicIT_E(ptr noundef nonnull align 4 dereferenceable(4) %4)
          to label %6 unwind label %7

6:                                                ; preds = %1
  ret i1 %5

7:                                                ; preds = %1
  %8 = landingpad { ptr, i32 }
          catch ptr null
  %9 = extractvalue { ptr, i32 } %8, 0
  call void @__clang_call_terminate(ptr %9) #15
  unreachable
}

; Function Attrs: mustprogress nounwind uwtable
define linkonce_odr noundef i32 @_ZNK19QBasicAtomicIntegerIiE11loadRelaxedEv(ptr noundef nonnull align 4 dereferenceable(4) %0) #4 comdat align 2 {
  %2 = alloca ptr, align 8
  store ptr %0, ptr %2, align 8
  %3 = load ptr, ptr %2, align 8
  %4 = getelementptr inbounds %class.QBasicAtomicInteger, ptr %3, i32 0, i32 0
  %5 = call noundef i32 @_ZN10QAtomicOpsIiE11loadRelaxedIiEET_RKSt6atomicIS2_E(ptr noundef nonnull align 4 dereferenceable(4) %4) #3
  ret i32 %5
}

; Function Attrs: mustprogress nounwind uwtable
define linkonce_odr noundef zeroext i1 @_ZN9QtPrivate8RefCount3refEv(ptr noundef nonnull align 4 dereferenceable(4) %0) #4 comdat align 2 {
  %2 = alloca i1, align 1
  %3 = alloca ptr, align 8
  %4 = alloca i32, align 4
  store ptr %0, ptr %3, align 8
  %5 = load ptr, ptr %3, align 8
  %6 = getelementptr inbounds %"class.QtPrivate::RefCount", ptr %5, i32 0, i32 0
  %7 = call noundef i32 @_ZNK19QBasicAtomicIntegerIiE11loadRelaxedEv(ptr noundef nonnull align 4 dereferenceable(4) %6) #3
  store i32 %7, ptr %4, align 4
  %8 = load i32, ptr %4, align 4
  %9 = icmp eq i32 %8, 0
  br i1 %9, label %10, label %11

10:                                               ; preds = %1
  store i1 false, ptr %2, align 1
  br label %18

11:                                               ; preds = %1
  %12 = load i32, ptr %4, align 4
  %13 = icmp ne i32 %12, -1
  br i1 %13, label %14, label %17

14:                                               ; preds = %11
  %15 = getelementptr inbounds %"class.QtPrivate::RefCount", ptr %5, i32 0, i32 0
  %16 = call noundef zeroext i1 @_ZN19QBasicAtomicIntegerIiE3refEv(ptr noundef nonnull align 4 dereferenceable(4) %15) #3
  br label %17

17:                                               ; preds = %14, %11
  store i1 true, ptr %2, align 1
  br label %18

18:                                               ; preds = %17, %10
  %19 = load i1, ptr %2, align 1
  ret i1 %19
}

; Function Attrs: mustprogress nounwind uwtable
define linkonce_odr void @_ZN7QStringC2ERKS_(ptr noundef nonnull align 8 dereferenceable(8) %0, ptr noundef nonnull align 8 dereferenceable(8) %1) unnamed_addr #4 comdat align 2 {
  %3 = alloca ptr, align 8
  %4 = alloca ptr, align 8
  store ptr %0, ptr %3, align 8
  store ptr %1, ptr %4, align 8
  %5 = load ptr, ptr %3, align 8
  %6 = getelementptr inbounds %class.QString, ptr %5, i32 0, i32 0
  %7 = load ptr, ptr %4, align 8
  %8 = getelementptr inbounds %class.QString, ptr %7, i32 0, i32 0
  %9 = load ptr, ptr %8, align 8
  store ptr %9, ptr %6, align 8
  %10 = getelementptr inbounds %class.QString, ptr %5, i32 0, i32 0
  %11 = load ptr, ptr %10, align 8
  %12 = getelementptr inbounds %struct.QArrayData, ptr %11, i32 0, i32 0
  %13 = call noundef zeroext i1 @_ZN9QtPrivate8RefCount3refEv(ptr noundef nonnull align 4 dereferenceable(4) %12) #3
  ret void
}

; Function Attrs: mustprogress nounwind uwtable
define void @_ZNK12MeshDocument8docLabelEv(ptr dead_on_unwind noalias writable sret(%class.QString) align 8 %0, ptr noundef nonnull align 8 dereferenceable(192) %1) #4 align 2 {
  %3 = alloca ptr, align 8
  %4 = alloca ptr, align 8
  store ptr %0, ptr %3, align 8
  store ptr %1, ptr %4, align 8
  %5 = load ptr, ptr %4, align 8
  %6 = getelementptr inbounds %class.MeshDocument, ptr %5, i32 0, i32 8
  call void @_ZN7QStringC2ERKS_(ptr noundef nonnull align 8 dereferenceable(8) %0, ptr noundef nonnull align 8 dereferenceable(8) %6) #3
  ret void
}