; Function Attrs: mustprogress nofree norecurse nounwind willreturn memory(readwrite, inaccessiblemem: none) uwtable
define void @_ZNK12MeshDocument8docLabelEv(ptr dead_on_unwind noalias nocapture writable writeonly sret(%class.QString) align 8 %0, ptr nocapture noundef nonnull readonly align 8 dereferenceable(192) %1) local_unnamed_addr #16 align 2 personality ptr @__gxx_personality_v0 {
  %3 = getelementptr inbounds i8, ptr %1, i64 144
  %4 = load ptr, ptr %3, align 8
  store ptr %4, ptr %0, align 8
  %5 = load atomic i32, ptr %4 monotonic, align 4
  %6 = add i32 %5, -1
  %or.cond.not.i.i = icmp ult i32 %6, -2
  br i1 %or.cond.not.i.i, label %7, label %_ZN7QStringC2ERKS_.exit

7:                                                ; preds = %2
  %8 = atomicrmw add ptr %4, i32 1 seq_cst, align 4
  br label %_ZN7QStringC2ERKS_.exit

_ZN7QStringC2ERKS_.exit:                          ; preds = %2, %7
  ret void
}